target datalayout = "e-m:e-p270:32:32-p271:32:32-p272:64:64-i64:64-i128:128-f80:128-n8:16:32:64-S128"
target triple = "x86_64-pc-linux-gnu"

%struct.PyModuleDef = type { %struct.PyModuleDef_Base, ptr, ptr, i64, ptr, ptr, ptr, ptr, ptr }
%struct.PyModuleDef_Base = type { %struct._object, ptr, i64, ptr }
%struct._object = type { %union.anon, ptr }
%union.anon = type { i64 }
%struct.anon = type { i32, i32 }
%struct._hashlibstate = type { ptr, ptr, ptr, ptr, ptr, ptr }
%struct.PyMethodDef = type { ptr, ptr, i32, ptr }

@.str.134 = private unnamed_addr constant [9 x i8] c"openssl_\00", align 1
@.str.135 = private unnamed_addr constant [14 x i8] c"_constructors\00", align 1

; Function Attrs: alwaysinline nounwind uwtable
define internal i32 @_Py_IsImmortal(ptr noundef %0) #3 {
  %2 = alloca ptr, align 8
  store ptr %0, ptr %2, align 8, !tbaa !14
  %3 = load ptr, ptr %2, align 8, !tbaa !14
  %4 = getelementptr inbounds nuw %struct._object, ptr %3, i32 0, i32 0
  %5 = getelementptr inbounds nuw %struct.anon, ptr %4, i32 0, i32 0
  %6 = load i32, ptr %5, align 8, !tbaa !28
  %7 = icmp slt i32 %6, 0
  %8 = zext i1 %7 to i32
  ret i32 %8
}

; Function Attrs: alwaysinline nounwind uwtable
define internal void @Py_DECREF(ptr noundef %0) #3 {
  %2 = alloca ptr, align 8
  store ptr %0, ptr %2, align 8, !tbaa !14
  %3 = load ptr, ptr %2, align 8, !tbaa !14
  %4 = call i32 @_Py_IsImmortal(ptr noundef %3)
  %5 = icmp ne i32 %4, 0
  br i1 %5, label %6, label %7

6:                                                ; preds = %1
  br label %16

7:                                                ; preds = %1
  %8 = load ptr, ptr %2, align 8, !tbaa !14
  %9 = getelementptr inbounds nuw %struct._object, ptr %8, i32 0, i32 0
  %10 = getelementptr inbounds nuw %struct.anon, ptr %9, i32 0, i32 0
  %11 = load i32, ptr %10, align 8, !tbaa !28
  %12 = add i32 %11, -1
  store i32 %12, ptr %10, align 8, !tbaa !28
  %13 = icmp eq i32 %12, 0
  br i1 %13, label %14, label %16

14:                                               ; preds = %7
  %15 = load ptr, ptr %2, align 8, !tbaa !14
  call void @_Py_Dealloc(ptr noundef %15)
  br label %16

16:                                               ; preds = %6, %14, %7
  ret void
}

; Function Attrs: inlinehint nounwind uwtable
define internal ptr @get_hashlib_state(ptr noundef %0) #4 {
  %2 = alloca ptr, align 8
  %3 = alloca ptr, align 8
  store ptr %0, ptr %2, align 8, !tbaa !14
  call void @llvm.lifetime.start.p0(i64 8, ptr %3) #9
  %4 = load ptr, ptr %2, align 8, !tbaa !14
  %5 = call ptr @PyModule_GetState(ptr noundef %4)
  store ptr %5, ptr %3, align 8, !tbaa !3
  %6 = load ptr, ptr %3, align 8, !tbaa !3
  call void @llvm.lifetime.end.p0(i64 8, ptr %3) #9
  ret ptr %6
}

; Function Attrs: nounwind uwtable
define internal i32 @hashlib_init_constructors(ptr noundef %0) #0 {
  %2 = alloca i32, align 4
  %3 = alloca ptr, align 8
  %4 = alloca ptr, align 8
  %5 = alloca ptr, align 8
  %6 = alloca ptr, align 8
  %7 = alloca ptr, align 8
  %8 = alloca ptr, align 8
  %9 = alloca i32, align 4
  %10 = alloca i32, align 4
  store ptr %0, ptr %3, align 8, !tbaa !14
  call void @llvm.lifetime.start.p0(i64 8, ptr %4) #9
  call void @llvm.lifetime.start.p0(i64 8, ptr %5) #9
  call void @llvm.lifetime.start.p0(i64 8, ptr %6) #9
  call void @llvm.lifetime.start.p0(i64 8, ptr %7) #9
  call void @llvm.lifetime.start.p0(i64 8, ptr %8) #9
  %11 = load ptr, ptr %3, align 8, !tbaa !14
  %12 = call ptr @get_hashlib_state(ptr noundef %11)
  store ptr %12, ptr %8, align 8, !tbaa !3
  %13 = load ptr, ptr %3, align 8, !tbaa !14
  %14 = call ptr @PyModule_GetDef(ptr noundef %13)
  store ptr %14, ptr %4, align 8, !tbaa !84
  %15 = load ptr, ptr %4, align 8, !tbaa !84
  %16 = icmp eq ptr %15, null
  br i1 %16, label %17, label %18

17:                                               ; preds = %1
  store i32 -1, ptr %2, align 4
  store i32 1, ptr %9, align 4
  br label %88

18:                                               ; preds = %1
  %19 = call ptr @PyDict_New()
  %20 = load ptr, ptr %8, align 8, !tbaa !3
  %21 = getelementptr inbounds nuw %struct._hashlibstate, ptr %20, i32 0, i32 3
  store ptr %19, ptr %21, align 8, !tbaa !62
  %22 = load ptr, ptr %8, align 8, !tbaa !3
  %23 = getelementptr inbounds nuw %struct._hashlibstate, ptr %22, i32 0, i32 3
  %24 = load ptr, ptr %23, align 8, !tbaa !62
  %25 = icmp eq ptr %24, null
  br i1 %25, label %26, label %27

26:                                               ; preds = %18
  store i32 -1, ptr %2, align 4
  store i32 1, ptr %9, align 4
  br label %88

27:                                               ; preds = %18
  %28 = load ptr, ptr %4, align 8, !tbaa !84
  %29 = getelementptr inbounds nuw %struct.PyModuleDef, ptr %28, i32 0, i32 4
  %30 = load ptr, ptr %29, align 8, !tbaa !86
  store ptr %30, ptr %5, align 8, !tbaa !90
  br label %31

31:                                               ; preds = %78, %27
  %32 = load ptr, ptr %5, align 8, !tbaa !90
  %33 = getelementptr inbounds nuw %struct.PyMethodDef, ptr %32, i32 0, i32 0
  %34 = load ptr, ptr %33, align 8, !tbaa !91
  %35 = icmp ne ptr %34, null
  br i1 %35, label %36, label %81

36:                                               ; preds = %31
  %37 = load ptr, ptr %5, align 8, !tbaa !90
  %38 = getelementptr inbounds nuw %struct.PyMethodDef, ptr %37, i32 0, i32 0
  %39 = load ptr, ptr %38, align 8, !tbaa !91
  %40 = call i32 @strncmp(ptr noundef %39, ptr noundef @.str.134, i64 noundef 8) #10
  %41 = icmp ne i32 %40, 0
  br i1 %41, label %42, label %43

42:                                               ; preds = %36
  br label %78

43:                                               ; preds = %36
  %44 = load ptr, ptr %5, align 8, !tbaa !90
  %45 = getelementptr inbounds nuw %struct.PyMethodDef, ptr %44, i32 0, i32 0
  %46 = load ptr, ptr %45, align 8, !tbaa !91
  %47 = getelementptr i8, ptr %46, i64 8
  %48 = call ptr @PyUnicode_FromString(ptr noundef %47)
  store ptr %48, ptr %7, align 8, !tbaa !14
  %49 = load ptr, ptr %7, align 8, !tbaa !14
  %50 = icmp eq ptr %49, null
  br i1 %50, label %51, label %52

51:                                               ; preds = %43
  store i32 -1, ptr %2, align 4
  store i32 1, ptr %9, align 4
  br label %88

52:                                               ; preds = %43
  %53 = load ptr, ptr %3, align 8, !tbaa !14
  %54 = load ptr, ptr %5, align 8, !tbaa !90
  %55 = getelementptr inbounds nuw %struct.PyMethodDef, ptr %54, i32 0, i32 0
  %56 = load ptr, ptr %55, align 8, !tbaa !91
  %57 = call ptr @PyObject_GetAttrString(ptr noundef %53, ptr noundef %56)
  store ptr %57, ptr %6, align 8, !tbaa !14
  %58 = load ptr, ptr %6, align 8, !tbaa !14
  %59 = icmp eq ptr %58, null
  br i1 %59, label %60, label %62

60:                                               ; preds = %52
  %61 = load ptr, ptr %7, align 8, !tbaa !14
  call void @Py_DECREF(ptr noundef %61)
  store i32 -1, ptr %2, align 4
  store i32 1, ptr %9, align 4
  br label %88

62:                                               ; preds = %52
  call void @llvm.lifetime.start.p0(i64 4, ptr %10) #9
  %63 = load ptr, ptr %8, align 8, !tbaa !3
  %64 = getelementptr inbounds nuw %struct._hashlibstate, ptr %63, i32 0, i32 3
  %65 = load ptr, ptr %64, align 8, !tbaa !62
  %66 = load ptr, ptr %6, align 8, !tbaa !14
  %67 = load ptr, ptr %7, align 8, !tbaa !14
  %68 = call i32 @PyDict_SetItem(ptr noundef %65, ptr noundef %66, ptr noundef %67)
  store i32 %68, ptr %10, align 4, !tbaa !19
  %69 = load ptr, ptr %6, align 8, !tbaa !14
  call void @Py_DECREF(ptr noundef %69)
  %70 = load ptr, ptr %7, align 8, !tbaa !14
  call void @Py_DECREF(ptr noundef %70)
  %71 = load i32, ptr %10, align 4, !tbaa !19
  %72 = icmp slt i32 %71, 0
  br i1 %72, label %73, label %74

73:                                               ; preds = %62
  store i32 -1, ptr %2, align 4
  store i32 1, ptr %9, align 4
  br label %75

74:                                               ; preds = %62
  store i32 0, ptr %9, align 4
  br label %75

75:                                               ; preds = %74, %73
  call void @llvm.lifetime.end.p0(i64 4, ptr %10) #9
  %76 = load i32, ptr %9, align 4
  switch i32 %76, label %88 [
    i32 0, label %77
  ]

77:                                               ; preds = %75
  br label %78

78:                                               ; preds = %77, %42
  %79 = load ptr, ptr %5, align 8, !tbaa !90
  %80 = getelementptr %struct.PyMethodDef, ptr %79, i32 1
  store ptr %80, ptr %5, align 8, !tbaa !90
  br label %31, !llvm.loop !93

81:                                               ; preds = %31
  %82 = load ptr, ptr %3, align 8, !tbaa !14
  %83 = load ptr, ptr %8, align 8, !tbaa !3
  %84 = getelementptr inbounds nuw %struct._hashlibstate, ptr %83, i32 0, i32 3
  %85 = load ptr, ptr %84, align 8, !tbaa !62
  %86 = call ptr @PyDictProxy_New(ptr noundef %85)
  %87 = call i32 @PyModule_Add(ptr noundef %82, ptr noundef @.str.135, ptr noundef %86)
  store i32 %87, ptr %2, align 4
  store i32 1, ptr %9, align 4
  br label %88

88:                                               ; preds = %81, %75, %60, %51, %26, %17
  call void @llvm.lifetime.end.p0(i64 8, ptr %8) #9
  call void @llvm.lifetime.end.p0(i64 8, ptr %7) #9
  call void @llvm.lifetime.end.p0(i64 8, ptr %6) #9
  call void @llvm.lifetime.end.p0(i64 8, ptr %5) #9
  call void @llvm.lifetime.end.p0(i64 8, ptr %4) #9
  %89 = load i32, ptr %2, align 4
  ret i32 %89
}