; Function Attrs: nounwind uwtable
define internal i32 @hashlib_init_constructors(ptr noundef %0) #0 {
  %2 = tail call ptr @PyModule_GetState(ptr noundef %0) #9
  %3 = tail call ptr @PyModule_GetDef(ptr noundef %0) #9
  %4 = icmp eq ptr %3, null
  br i1 %4, label %Py_DECREF.exit34, label %5

5:                                                ; preds = %1
  %6 = tail call ptr @PyDict_New() #9
  %7 = getelementptr inbounds nuw i8, ptr %2, i64 24
  store ptr %6, ptr %7, align 8, !tbaa !47
  %8 = icmp eq ptr %6, null
  br i1 %8, label %Py_DECREF.exit34, label %9

9:                                                ; preds = %5
  %10 = getelementptr inbounds nuw i8, ptr %3, i64 64
  %11 = load ptr, ptr %10, align 8, !tbaa !74
  %12 = load ptr, ptr %11, align 8, !tbaa !78
  %.not38 = icmp eq ptr %12, null
  br i1 %.not38, label %._crit_edge, label %.lr.ph

.lr.ph:                                           ; preds = %9, %43
  %13 = phi ptr [ %45, %43 ], [ %12, %9 ]
  %.02539 = phi ptr [ %44, %43 ], [ %11, %9 ]
  %14 = tail call i32 @strncmp(ptr noundef nonnull dereferenceable(1) %13, ptr noundef nonnull dereferenceable(9) @.str.134, i64 noundef 8) #10
  %.not30 = icmp eq i32 %14, 0
  br i1 %.not30, label %15, label %43

15:                                               ; preds = %.lr.ph
  %16 = getelementptr i8, ptr %13, i64 8
  %17 = tail call ptr @PyUnicode_FromString(ptr noundef %16) #9
  %18 = icmp eq ptr %17, null
  br i1 %18, label %Py_DECREF.exit34, label %19

19:                                               ; preds = %15
  %20 = load ptr, ptr %.02539, align 8, !tbaa !78
  %21 = tail call ptr @PyObject_GetAttrString(ptr noundef %0, ptr noundef %20) #9
  %22 = icmp eq ptr %21, null
  br i1 %22, label %23, label %29

23:                                               ; preds = %19
  %24 = load i32, ptr %17, align 8, !tbaa !21
  %.not.i33 = icmp sgt i32 %24, -1
  br i1 %.not.i33, label %25, label %Py_DECREF.exit34

25:                                               ; preds = %23
  %26 = add nsw i32 %24, -1
  store i32 %26, ptr %17, align 8, !tbaa !21
  %27 = icmp eq i32 %26, 0
  br i1 %27, label %28, label %Py_DECREF.exit34

28:                                               ; preds = %25
  tail call void @_Py_Dealloc(ptr noundef nonnull %17) #9
  br label %Py_DECREF.exit34

29:                                               ; preds = %19
  %30 = load ptr, ptr %7, align 8, !tbaa !47
  %31 = tail call i32 @PyDict_SetItem(ptr noundef %30, ptr noundef nonnull %21, ptr noundef nonnull %17) #9
  %32 = load i32, ptr %21, align 8, !tbaa !21
  %.not.i31 = icmp sgt i32 %32, -1
  br i1 %.not.i31, label %33, label %Py_DECREF.exit32

33:                                               ; preds = %29
  %34 = add nsw i32 %32, -1
  store i32 %34, ptr %21, align 8, !tbaa !21
  %35 = icmp eq i32 %34, 0
  br i1 %35, label %36, label %Py_DECREF.exit32

36:                                               ; preds = %33
  tail call void @_Py_Dealloc(ptr noundef nonnull %21) #9
  br label %Py_DECREF.exit32

Py_DECREF.exit32:                                 ; preds = %29, %33, %36
  %37 = load i32, ptr %17, align 8, !tbaa !21
  %.not.i = icmp sgt i32 %37, -1
  br i1 %.not.i, label %38, label %Py_DECREF.exit

38:                                               ; preds = %Py_DECREF.exit32
  %39 = add nsw i32 %37, -1
  store i32 %39, ptr %17, align 8, !tbaa !21
  %40 = icmp eq i32 %39, 0
  br i1 %40, label %41, label %Py_DECREF.exit

41:                                               ; preds = %38
  tail call void @_Py_Dealloc(ptr noundef nonnull %17) #9
  br label %Py_DECREF.exit

Py_DECREF.exit:                                   ; preds = %Py_DECREF.exit32, %38, %41
  %42 = icmp sgt i32 %31, -1
  br i1 %42, label %43, label %Py_DECREF.exit34

43:                                               ; preds = %Py_DECREF.exit, %.lr.ph
  %44 = getelementptr i8, ptr %.02539, i64 32
  %45 = load ptr, ptr %44, align 8, !tbaa !78
  %.not = icmp eq ptr %45, null
  br i1 %.not, label %._crit_edge.loopexit, label %.lr.ph, !llvm.loop !80

._crit_edge.loopexit:                             ; preds = %43
  %.pre = load ptr, ptr %7, align 8, !tbaa !47
  br label %._crit_edge

._crit_edge:                                      ; preds = %._crit_edge.loopexit, %9
  %46 = phi ptr [ %.pre, %._crit_edge.loopexit ], [ %6, %9 ]
  %47 = tail call ptr @PyDictProxy_New(ptr noundef %46) #9
  %48 = tail call i32 @PyModule_Add(ptr noundef %0, ptr noundef nonnull @.str.135, ptr noundef %47) #9
  br label %Py_DECREF.exit34

Py_DECREF.exit34:                                 ; preds = %15, %Py_DECREF.exit, %28, %25, %23, %5, %1, %._crit_edge
  %.0 = phi i32 [ %48, %._crit_edge ], [ -1, %1 ], [ -1, %5 ], [ -1, %23 ], [ -1, %25 ], [ -1, %28 ], [ -1, %Py_DECREF.exit ], [ -1, %15 ]
  ret i32 %.0
}